target datalayout = "e-m:e-p270:32:32-p271:32:32-p272:64:64-i64:64-i128:128-f80:128-n8:16:32:64-S128"
target triple = "x86_64-pc-linux-gnu"

%struct.Curl_cftype = type { ptr, i32, i32, ptr, ptr, ptr, ptr, ptr, ptr, ptr, ptr, ptr, ptr, ptr, ptr, ptr }
%struct.Curl_sockaddr_ex = type { i32, i32, i32, i32, %union.anon }
%union.anon = type { %struct.Curl_sockaddr_storage }
%struct.Curl_sockaddr_storage = type { %union.anon.0 }
%union.anon.0 = type { %struct.sockaddr_storage }
%struct.sockaddr_storage = type { i16, [118 x i8], i64 }
%struct.Curl_easy = type { i32, i64, i64, ptr, %struct.Curl_llist_node, %struct.Curl_llist_node, i32, i32, %struct.Curl_message, %struct.easy_pollset, %struct.Names, ptr, ptr, ptr, ptr, %struct.SingleRequest, %struct.UserDefined, ptr, ptr, ptr, %struct.Progress, %struct.UrlState, ptr, %struct.PureInfo, %struct.curl_tlssessioninfo }
%struct.Curl_llist_node = type { ptr, ptr, ptr, ptr }
%struct.Curl_message = type { %struct.Curl_llist_node, %struct.CURLMsg }
%struct.CURLMsg = type { i32, ptr, %union.anon.3 }
%union.anon.3 = type { ptr }
%struct.easy_pollset = type { [5 x i32], i32, [5 x i8] }
%struct.Names = type { ptr, i32 }
%struct.SingleRequest = type <{ i64, i64, i64, i64, %struct.curltime, i32, i32, i32, i32, i64, i32, i32, i8, i8, [2 x i8], i32, ptr, ptr, %struct.bufq, i64, i64, ptr, ptr, %union.anon.4, ptr, i8, i32, [3 x i8] }>
%struct.curltime = type { i64, i32 }
%struct.bufq = type { ptr, ptr, ptr, ptr, i64, i64, i64, i32 }
%union.anon.4 = type { ptr }
%struct.UserDefined = type <{ ptr, ptr, ptr, ptr, ptr, ptr, i64, i64, i64, ptr, ptr, i64, ptr, ptr, ptr, ptr, ptr, ptr, ptr, ptr, ptr, ptr, ptr, ptr, ptr, ptr, ptr, ptr, ptr, ptr, ptr, ptr, ptr, ptr, ptr, i64, i64, i64, i64, i64, i64, i64, i64, i64, ptr, ptr, %struct.curl_mimepart, ptr, ptr, ptr, i64, %struct.ssl_config_data, %struct.ssl_config_data, ptr, i16, i8, i8, %struct.ssl_general_config, i32, i32, i32, [4 x i8], ptr, ptr, i64, i32, i8, i8, i8, i8, ptr, ptr, ptr, i32, [4 x i8], [74 x ptr], [8 x ptr], i32, i32, i32, [4 x i8], ptr, i32, [4 x i8], ptr, ptr, ptr, ptr, ptr, i32, i32, i32, i32, i32, i32, i32, i32, i64, ptr, ptr, i64, ptr, i64, ptr, ptr, ptr, ptr, i32, i16, i16, i16, i8, i8, i8, i8, i8, i8, i8, i8, i64, [6 x i8] }>
%struct.curl_mimepart = type { ptr, ptr, i32, i32, ptr, ptr, ptr, ptr, ptr, ptr, ptr, ptr, ptr, ptr, ptr, i64, %struct.mime_state, ptr, %struct.mime_encoder_state, i64 }
%struct.mime_state = type { i32, ptr, i64 }
%struct.mime_encoder_state = type { i64, i64, i64, [256 x i8] }
%struct.ssl_config_data = type { %struct.ssl_primary_config, i64, ptr, ptr, ptr, ptr, ptr, ptr, ptr, i16 }
%struct.ssl_primary_config = type { ptr, ptr, ptr, ptr, ptr, ptr, ptr, ptr, ptr, ptr, ptr, ptr, ptr, ptr, i8, i32, i8, i8 }
%struct.ssl_general_config = type { i32 }
%struct.Progress = type { i64, %struct.pgrs_dir, %struct.pgrs_dir, i64, i64, i32, i32, i64, i64, i64, i64, i64, i64, i64, i64, i64, %struct.curltime, %struct.curltime, %struct.curltime, %struct.curltime, %struct.curltime, [6 x i64], [6 x %struct.curltime], i32, i8 }
%struct.pgrs_dir = type { i64, i64, i64, %struct.pgrs_measure }
%struct.pgrs_measure = type { %struct.curltime, i64 }
%struct.UrlState = type { %struct.curltime, i64, i64, %struct.dynbuf, ptr, i64, ptr, i32, i32, i32, ptr, i32, i64, i32, ptr, %struct.digestdata, %struct.digestdata, %struct.auth, %struct.auth, %struct.Curl_async, ptr, i8, %struct.curltime, %struct.Curl_tree, %struct.Curl_llist, [15 x %struct.time_node], ptr, ptr, i64, i64, i64, i64, [32 x i8], i64, ptr, ptr, ptr, %struct.urlpieces, ptr, ptr, ptr, ptr, ptr, i64, %struct.dynbuf, %struct.Curl_llist, [2 x %struct.curl_header], ptr, i32, ptr, ptr, %struct.store_netrc, %struct.dynamically_allocated_data, i8, i8, i8, i8, i32 }
%struct.digestdata = type { ptr, ptr, ptr, ptr, ptr, ptr, i32, i8, i8 }
%struct.auth = type { i64, i64, i64, i8 }
%struct.Curl_async = type { ptr, ptr, ptr, ptr, i32, i32, i8 }
%struct.Curl_tree = type { ptr, ptr, ptr, ptr, %struct.curltime, ptr }
%struct.time_node = type { %struct.Curl_llist_node, %struct.curltime, i32 }
%struct.urlpieces = type { ptr, ptr, ptr, ptr, ptr, ptr, ptr, ptr }
%struct.dynbuf = type { ptr, i64, i64, i64 }
%struct.Curl_llist = type { ptr, ptr, ptr, i64 }
%struct.curl_header = type { ptr, ptr, i64, i64, i32, ptr }
%struct.store_netrc = type { %struct.dynbuf, ptr, i8 }
%struct.dynamically_allocated_data = type { ptr, ptr, ptr, ptr, ptr, ptr, ptr, ptr, ptr, ptr, ptr, ptr, ptr, ptr }
%struct.PureInfo = type { i32, i32, i32, i64, i64, i64, i64, i64, i64, i64, ptr, ptr, i64, i32, %struct.ip_quadruple, i32, ptr, i32, %struct.curl_certinfo, i32, i8 }
%struct.ip_quadruple = type { [46 x i8], [46 x i8], i32, i32 }
%struct.curl_certinfo = type { i32, ptr }
%struct.curl_tlssessioninfo = type { i32, ptr }
%struct.connectdata = type { %struct.Curl_llist_node, ptr, ptr, i64, ptr, i64, ptr, ptr, %struct.hostname, ptr, ptr, %struct.hostname, %struct.proxy_info, %struct.proxy_info, %struct.ip_quadruple, %struct.ip_quadruple, ptr, ptr, ptr, ptr, ptr, %struct.curltime, %struct.curltime, %struct.curltime, [2 x i32], [2 x ptr], [2 x ptr], [2 x ptr], %struct.anon, %struct.easy_pollset, %struct.ssl_primary_config, %struct.ssl_primary_config, %struct.ConnectBits, ptr, ptr, %struct.curltime, i32, i32, %struct.Curl_llist, i32, i32, %struct.ntlmdata, %struct.ntlmdata, %union.anon.2, ptr, ptr, i16, i32, i32, i32, i32, i16, i16, i8, i8, i8, i8, i8, i8, i8 }
%struct.hostname = type { ptr, ptr, ptr, ptr }
%struct.proxy_info = type { %struct.hostname, i32, i8, ptr, ptr }
%struct.anon = type { [2 x %struct.curltime], i32 }
%struct.ConnectBits = type { i64 }
%struct.ntlmdata = type { i32, [8 x i8], i32, ptr }
%union.anon.2 = type { %struct.ftp_conn }
%struct.ftp_conn = type { %struct.pingpong, ptr, ptr, ptr, ptr, ptr, ptr, ptr, i8, i64, ptr, i64, i32, i32, i32, i32, i32, i16, i8, i8, i8, i8, i8 }
%struct.pingpong = type { i64, i8, ptr, i64, i64, %struct.curltime, i64, %struct.dynbuf, %struct.dynbuf, i64, i64, ptr, ptr }
%struct.Curl_cfilter = type { ptr, ptr, ptr, ptr, i32, i8 }
%struct.curl_trc_feat = type { ptr, i32 }
%struct.cf_socket_ctx = type { i32, %struct.Curl_sockaddr_ex, i32, %struct.ip_quadruple, %struct.curltime, %struct.curltime, %struct.curltime, i32, i8 }

@.str.29 = private unnamed_addr constant [20 x i8] c"cf_socket_close(%d)\00", align 1

; Function Attrs: nounwind uwtable
define internal i32 @socket_close(ptr noundef %0, ptr noundef %1, i32 noundef %2, i32 noundef %3) #0 {
  %5 = alloca i32, align 4
  %6 = alloca ptr, align 8
  %7 = alloca ptr, align 8
  %8 = alloca i32, align 4
  %9 = alloca i32, align 4
  %10 = alloca i32, align 4
  store ptr %0, ptr %6, align 8, !tbaa !23
  store ptr %1, ptr %7, align 8, !tbaa !109
  store i32 %2, ptr %8, align 4, !tbaa !10
  store i32 %3, ptr %9, align 4, !tbaa !10
  %11 = load i32, ptr %9, align 4, !tbaa !10
  %12 = icmp eq i32 -1, %11
  br i1 %12, label %13, label %14

13:                                               ; preds = %4
  store i32 0, ptr %5, align 4
  br label %48

14:                                               ; preds = %4
  %15 = load i32, ptr %8, align 4, !tbaa !10
  %16 = icmp ne i32 %15, 0
  br i1 %16, label %17, label %39

17:                                               ; preds = %14
  %18 = load ptr, ptr %7, align 8, !tbaa !109
  %19 = icmp ne ptr %18, null
  br i1 %19, label %20, label %39

20:                                               ; preds = %17
  %21 = load ptr, ptr %7, align 8, !tbaa !109
  %22 = getelementptr inbounds nuw %struct.connectdata, ptr %21, i32 0, i32 1
  %23 = load ptr, ptr %22, align 8, !tbaa !110
  %24 = icmp ne ptr %23, null
  br i1 %24, label %25, label %39

25:                                               ; preds = %20
  call void @llvm.lifetime.start.p0(i64 4, ptr %10) #9
  %26 = load ptr, ptr %6, align 8, !tbaa !23
  %27 = load i32, ptr %9, align 4, !tbaa !10
  call void @Curl_multi_closed(ptr noundef %26, i32 noundef %27)
  %28 = load ptr, ptr %6, align 8, !tbaa !23
  call void @Curl_set_in_callback(ptr noundef %28, i1 noundef zeroext true)
  %29 = load ptr, ptr %7, align 8, !tbaa !109
  %30 = getelementptr inbounds nuw %struct.connectdata, ptr %29, i32 0, i32 1
  %31 = load ptr, ptr %30, align 8, !tbaa !110
  %32 = load ptr, ptr %7, align 8, !tbaa !109
  %33 = getelementptr inbounds nuw %struct.connectdata, ptr %32, i32 0, i32 2
  %34 = load ptr, ptr %33, align 8, !tbaa !111
  %35 = load i32, ptr %9, align 4, !tbaa !10
  %36 = call i32 %31(ptr noundef %34, i32 noundef %35)
  store i32 %36, ptr %10, align 4, !tbaa !10
  %37 = load ptr, ptr %6, align 8, !tbaa !23
  call void @Curl_set_in_callback(ptr noundef %37, i1 noundef zeroext false)
  %38 = load i32, ptr %10, align 4, !tbaa !10
  store i32 %38, ptr %5, align 4
  call void @llvm.lifetime.end.p0(i64 4, ptr %10) #9
  br label %48

39:                                               ; preds = %20, %17, %14
  %40 = load ptr, ptr %7, align 8, !tbaa !109
  %41 = icmp ne ptr %40, null
  br i1 %41, label %42, label %45

42:                                               ; preds = %39
  %43 = load ptr, ptr %6, align 8, !tbaa !23
  %44 = load i32, ptr %9, align 4, !tbaa !10
  call void @Curl_multi_closed(ptr noundef %43, i32 noundef %44)
  br label %45

45:                                               ; preds = %42, %39
  %46 = load i32, ptr %9, align 4, !tbaa !10
  %47 = call i32 @close(i32 noundef %46)
  store i32 0, ptr %5, align 4
  br label %48

48:                                               ; preds = %45, %25, %13
  %49 = load i32, ptr %5, align 4
  ret i32 %49
}

; Function Attrs: nounwind uwtable
define internal void @cf_socket_close(ptr noundef %0, ptr noundef %1) #0 {
  %3 = alloca ptr, align 8
  %4 = alloca ptr, align 8
  %5 = alloca ptr, align 8
  store ptr %0, ptr %3, align 8, !tbaa !118
  store ptr %1, ptr %4, align 8, !tbaa !23
  call void @llvm.lifetime.start.p0(i64 8, ptr %5) #9
  %6 = load ptr, ptr %3, align 8, !tbaa !118
  %7 = getelementptr inbounds nuw %struct.Curl_cfilter, ptr %6, i32 0, i32 2
  %8 = load ptr, ptr %7, align 8, !tbaa !120
  store ptr %8, ptr %5, align 8, !tbaa !123
  %9 = load ptr, ptr %5, align 8, !tbaa !123
  %10 = icmp ne ptr %9, null
  br i1 %10, label %11, label %133

11:                                               ; preds = %2
  %12 = load ptr, ptr %5, align 8, !tbaa !123
  %13 = getelementptr inbounds nuw %struct.cf_socket_ctx, ptr %12, i32 0, i32 2
  %14 = load i32, ptr %13, align 8, !tbaa !137
  %15 = icmp ne i32 -1, %14
  br i1 %15, label %16, label %133

16:                                               ; preds = %11
  br label %17

17:                                               ; preds = %16
  %18 = load ptr, ptr %4, align 8, !tbaa !23
  %19 = icmp ne ptr %18, null
  br i1 %19, label %20, label %59

20:                                               ; preds = %17
  %21 = load ptr, ptr %4, align 8, !tbaa !23
  %22 = getelementptr inbounds nuw %struct.Curl_easy, ptr %21, i32 0, i32 16
  %23 = getelementptr inbounds nuw %struct.UserDefined, ptr %22, i32 0, i32 119
  %24 = load i64, ptr %23, align 2
  %25 = lshr i64 %24, 31
  %26 = and i64 %25, 1
  %27 = trunc i64 %26 to i32
  %28 = icmp ne i32 %27, 0
  br i1 %28, label %29, label %59

29:                                               ; preds = %20
  %30 = load ptr, ptr %4, align 8, !tbaa !23
  %31 = getelementptr inbounds nuw %struct.Curl_easy, ptr %30, i32 0, i32 21
  %32 = getelementptr inbounds nuw %struct.UrlState, ptr %31, i32 0, i32 50
  %33 = load ptr, ptr %32, align 8, !tbaa !125
  %34 = icmp ne ptr %33, null
  br i1 %34, label %35, label %43

35:                                               ; preds = %29
  %36 = load ptr, ptr %4, align 8, !tbaa !23
  %37 = getelementptr inbounds nuw %struct.Curl_easy, ptr %36, i32 0, i32 21
  %38 = getelementptr inbounds nuw %struct.UrlState, ptr %37, i32 0, i32 50
  %39 = load ptr, ptr %38, align 8, !tbaa !125
  %40 = getelementptr inbounds nuw %struct.curl_trc_feat, ptr %39, i32 0, i32 1
  %41 = load i32, ptr %40, align 8, !tbaa !126
  %42 = icmp sge i32 %41, 1
  br i1 %42, label %43, label %59

43:                                               ; preds = %35, %29
  %44 = load ptr, ptr %3, align 8, !tbaa !118
  %45 = icmp ne ptr %44, null
  br i1 %45, label %46, label %59

46:                                               ; preds = %43
  %47 = load ptr, ptr %3, align 8, !tbaa !118
  %48 = getelementptr inbounds nuw %struct.Curl_cfilter, ptr %47, i32 0, i32 0
  %49 = load ptr, ptr %48, align 8, !tbaa !128
  %50 = getelementptr inbounds nuw %struct.Curl_cftype, ptr %49, i32 0, i32 2
  %51 = load i32, ptr %50, align 4, !tbaa !129
  %52 = icmp sge i32 %51, 1
  br i1 %52, label %53, label %59

53:                                               ; preds = %46
  %54 = load ptr, ptr %4, align 8, !tbaa !23
  %55 = load ptr, ptr %3, align 8, !tbaa !118
  %56 = load ptr, ptr %5, align 8, !tbaa !123
  %57 = getelementptr inbounds nuw %struct.cf_socket_ctx, ptr %56, i32 0, i32 2
  %58 = load i32, ptr %57, align 8, !tbaa !137
  call void (ptr, ptr, ptr, ...) @Curl_trc_cf_infof(ptr noundef %54, ptr noundef %55, ptr noundef @.str.29, i32 noundef %58)
  br label %59

59:                                               ; preds = %53, %46, %43, %35, %20, %17
  br label %60

60:                                               ; preds = %59
  br label %61

61:                                               ; preds = %60
  %62 = load ptr, ptr %5, align 8, !tbaa !123
  %63 = getelementptr inbounds nuw %struct.cf_socket_ctx, ptr %62, i32 0, i32 2
  %64 = load i32, ptr %63, align 8, !tbaa !137
  %65 = load ptr, ptr %3, align 8, !tbaa !118
  %66 = getelementptr inbounds nuw %struct.Curl_cfilter, ptr %65, i32 0, i32 3
  %67 = load ptr, ptr %66, align 8, !tbaa !139
  %68 = getelementptr inbounds nuw %struct.connectdata, ptr %67, i32 0, i32 24
  %69 = load ptr, ptr %3, align 8, !tbaa !118
  %70 = getelementptr inbounds nuw %struct.Curl_cfilter, ptr %69, i32 0, i32 4
  %71 = load i32, ptr %70, align 8, !tbaa !145
  %72 = sext i32 %71 to i64
  %73 = getelementptr inbounds [2 x i32], ptr %68, i64 0, i64 %72
  %74 = load i32, ptr %73, align 4, !tbaa !10
  %75 = icmp eq i32 %64, %74
  br i1 %75, label %76, label %86

76:                                               ; preds = %61
  %77 = load ptr, ptr %3, align 8, !tbaa !118
  %78 = getelementptr inbounds nuw %struct.Curl_cfilter, ptr %77, i32 0, i32 3
  %79 = load ptr, ptr %78, align 8, !tbaa !139
  %80 = getelementptr inbounds nuw %struct.connectdata, ptr %79, i32 0, i32 24
  %81 = load ptr, ptr %3, align 8, !tbaa !118
  %82 = getelementptr inbounds nuw %struct.Curl_cfilter, ptr %81, i32 0, i32 4
  %83 = load i32, ptr %82, align 8, !tbaa !145
  %84 = sext i32 %83 to i64
  %85 = getelementptr inbounds [2 x i32], ptr %80, i64 0, i64 %84
  store i32 -1, ptr %85, align 4, !tbaa !10
  br label %86

86:                                               ; preds = %76, %61
  %87 = load ptr, ptr %4, align 8, !tbaa !23
  %88 = load ptr, ptr %3, align 8, !tbaa !118
  %89 = getelementptr inbounds nuw %struct.Curl_cfilter, ptr %88, i32 0, i32 3
  %90 = load ptr, ptr %89, align 8, !tbaa !139
  %91 = load ptr, ptr %5, align 8, !tbaa !123
  %92 = getelementptr inbounds nuw %struct.cf_socket_ctx, ptr %91, i32 0, i32 8
  %93 = load i8, ptr %92, align 4
  %94 = lshr i8 %93, 2
  %95 = and i8 %94, 1
  %96 = zext i8 %95 to i32
  %97 = icmp ne i32 %96, 0
  %98 = xor i1 %97, true
  %99 = zext i1 %98 to i32
  %100 = load ptr, ptr %5, align 8, !tbaa !123
  %101 = getelementptr inbounds nuw %struct.cf_socket_ctx, ptr %100, i32 0, i32 2
  %102 = load i32, ptr %101, align 8, !tbaa !137
  %103 = call i32 @socket_close(ptr noundef %87, ptr noundef %90, i32 noundef %99, i32 noundef %102)
  %104 = load ptr, ptr %5, align 8, !tbaa !123
  %105 = getelementptr inbounds nuw %struct.cf_socket_ctx, ptr %104, i32 0, i32 2
  store i32 -1, ptr %105, align 8, !tbaa !137
  %106 = load ptr, ptr %5, align 8, !tbaa !123
  %107 = getelementptr inbounds nuw %struct.cf_socket_ctx, ptr %106, i32 0, i32 8
  %108 = load i8, ptr %107, align 4
  %109 = lshr i8 %108, 4
  %110 = and i8 %109, 1
  %111 = zext i8 %110 to i32
  %112 = icmp ne i32 %111, 0
  br i1 %112, label %113, label %123

113:                                              ; preds = %86
  %114 = load ptr, ptr %3, align 8, !tbaa !118
  %115 = getelementptr inbounds nuw %struct.Curl_cfilter, ptr %114, i32 0, i32 4
  %116 = load i32, ptr %115, align 8, !tbaa !145
  %117 = icmp eq i32 %116, 0
  br i1 %117, label %118, label %123

118:                                              ; preds = %113
  %119 = load ptr, ptr %3, align 8, !tbaa !118
  %120 = getelementptr inbounds nuw %struct.Curl_cfilter, ptr %119, i32 0, i32 3
  %121 = load ptr, ptr %120, align 8, !tbaa !139
  %122 = getelementptr inbounds nuw %struct.connectdata, ptr %121, i32 0, i32 7
  store ptr null, ptr %122, align 8, !tbaa !146
  br label %123

123:                                              ; preds = %118, %113, %86
  %124 = load ptr, ptr %5, align 8, !tbaa !123
  %125 = getelementptr inbounds nuw %struct.cf_socket_ctx, ptr %124, i32 0, i32 8
  %126 = load i8, ptr %125, align 4
  %127 = and i8 %126, -17
  %128 = or i8 %127, 0
  store i8 %128, ptr %125, align 4
  %129 = load ptr, ptr %5, align 8, !tbaa !123
  %130 = getelementptr inbounds nuw %struct.cf_socket_ctx, ptr %129, i32 0, i32 4
  call void @llvm.memset.p0.i64(ptr align 8 %130, i8 0, i64 16, i1 false)
  %131 = load ptr, ptr %5, align 8, !tbaa !123
  %132 = getelementptr inbounds nuw %struct.cf_socket_ctx, ptr %131, i32 0, i32 5
  call void @llvm.memset.p0.i64(ptr align 8 %132, i8 0, i64 16, i1 false)
  br label %133

133:                                              ; preds = %123, %11, %2
  %134 = load ptr, ptr %3, align 8, !tbaa !118
  %135 = getelementptr inbounds nuw %struct.Curl_cfilter, ptr %134, i32 0, i32 5
  %136 = load i8, ptr %135, align 4
  %137 = and i8 %136, -2
  %138 = or i8 %137, 0
  store i8 %138, ptr %135, align 4
  call void @llvm.lifetime.end.p0(i64 8, ptr %5) #9
  ret void
}