; Function Attrs: nounwind uwtable
define internal void @cf_socket_close(ptr noundef %0, ptr noundef %1) #2 {
  %3 = getelementptr inbounds nuw i8, ptr %0, i64 16
  %4 = load ptr, ptr %3, align 8, !tbaa !104
  %.not = icmp eq ptr %4, null
  br i1 %.not, label %67, label %5

5:                                                ; preds = %2
  %6 = getelementptr inbounds nuw i8, ptr %4, i64 152
  %7 = load i32, ptr %6, align 8, !tbaa !116
  %.not32 = icmp eq i32 %7, -1
  br i1 %.not32, label %67, label %8

8:                                                ; preds = %5
  %.not33 = icmp eq ptr %1, null
  br i1 %.not33, label %26, label %9

9:                                                ; preds = %8
  %10 = getelementptr inbounds nuw i8, ptr %1, i64 2658
  %11 = load i64, ptr %10, align 2
  %12 = and i64 %11, 2147483648
  %.not34 = icmp eq i64 %12, 0
  br i1 %.not34, label %26, label %13

13:                                               ; preds = %9
  %14 = getelementptr inbounds nuw i8, ptr %1, i64 4864
  %15 = load ptr, ptr %14, align 8, !tbaa !108
  %.not35 = icmp eq ptr %15, null
  br i1 %.not35, label %20, label %16

16:                                               ; preds = %13
  %17 = getelementptr inbounds nuw i8, ptr %15, i64 8
  %18 = load i32, ptr %17, align 8, !tbaa !109
  %19 = icmp sgt i32 %18, 0
  br i1 %19, label %20, label %26

20:                                               ; preds = %13, %16
  %21 = load ptr, ptr %0, align 8, !tbaa !111
  %22 = getelementptr inbounds nuw i8, ptr %21, i64 12
  %23 = load i32, ptr %22, align 4, !tbaa !112
  %24 = icmp sgt i32 %23, 0
  br i1 %24, label %25, label %26

25:                                               ; preds = %20
  tail call void (ptr, ptr, ptr, ...) @Curl_trc_cf_infof(ptr noundef nonnull %1, ptr noundef nonnull %0, ptr noundef nonnull @.str.29, i32 noundef %7) #13
  %.pre = load i32, ptr %6, align 8, !tbaa !116
  br label %26

26:                                               ; preds = %25, %20, %16, %9, %8
  %27 = phi i32 [ %.pre, %25 ], [ %7, %20 ], [ %7, %16 ], [ %7, %9 ], [ %7, %8 ]
  %28 = getelementptr inbounds nuw i8, ptr %0, i64 24
  %29 = load ptr, ptr %28, align 8, !tbaa !118
  %30 = getelementptr inbounds nuw i8, ptr %29, i64 568
  %31 = getelementptr inbounds nuw i8, ptr %0, i64 32
  %32 = load i32, ptr %31, align 8, !tbaa !126
  %33 = sext i32 %32 to i64
  %34 = getelementptr inbounds [2 x i32], ptr %30, i64 0, i64 %33
  %35 = load i32, ptr %34, align 4, !tbaa !87
  %36 = icmp eq i32 %27, %35
  br i1 %36, label %37, label %38

37:                                               ; preds = %26
  store i32 -1, ptr %34, align 4, !tbaa !87
  %.pre38 = load i32, ptr %6, align 8, !tbaa !116
  br label %38

38:                                               ; preds = %37, %26
  %39 = phi i32 [ %.pre38, %37 ], [ %27, %26 ]
  %40 = getelementptr inbounds nuw i8, ptr %4, i64 308
  %41 = icmp eq i32 %39, -1
  br i1 %41, label %socket_close.exit, label %42

42:                                               ; preds = %38
  %43 = load i8, ptr %40, align 4
  %44 = and i8 %43, 4
  %.not36 = icmp eq i8 %44, 0
  br i1 %.not36, label %45, label %53

45:                                               ; preds = %42
  %46 = getelementptr inbounds nuw i8, ptr %29, i64 32
  %47 = load ptr, ptr %46, align 8, !tbaa !124
  %.not.i = icmp eq ptr %47, null
  br i1 %.not.i, label %53, label %48

48:                                               ; preds = %45
  tail call void @Curl_multi_closed(ptr noundef %1, i32 noundef %39) #13
  tail call void @Curl_set_in_callback(ptr noundef %1, i1 noundef zeroext true) #13
  %49 = load ptr, ptr %46, align 8, !tbaa !124
  %50 = getelementptr inbounds nuw i8, ptr %29, i64 40
  %51 = load ptr, ptr %50, align 8, !tbaa !125
  %52 = tail call i32 %49(ptr noundef %51, i32 noundef %39) #13
  tail call void @Curl_set_in_callback(ptr noundef %1, i1 noundef zeroext false) #13
  br label %socket_close.exit

53:                                               ; preds = %45, %42
  tail call void @Curl_multi_closed(ptr noundef %1, i32 noundef %39) #13
  %54 = tail call i32 @close(i32 noundef %39) #13
  br label %socket_close.exit

socket_close.exit:                                ; preds = %38, %48, %53
  store i32 -1, ptr %6, align 8, !tbaa !116
  %55 = load i8, ptr %40, align 4
  %56 = and i8 %55, 16
  %.not37 = icmp eq i8 %56, 0
  br i1 %.not37, label %63, label %57

57:                                               ; preds = %socket_close.exit
  %58 = load i32, ptr %31, align 8, !tbaa !126
  %59 = icmp eq i32 %58, 0
  br i1 %59, label %60, label %63

60:                                               ; preds = %57
  %61 = load ptr, ptr %28, align 8, !tbaa !118
  %62 = getelementptr inbounds nuw i8, ptr %61, i64 80
  store ptr null, ptr %62, align 8, !tbaa !127
  %.pre39 = load i8, ptr %40, align 4
  br label %63

63:                                               ; preds = %60, %57, %socket_close.exit
  %64 = phi i8 [ %.pre39, %60 ], [ %55, %57 ], [ %55, %socket_close.exit ]
  %65 = and i8 %64, -17
  store i8 %65, ptr %40, align 4
  %66 = getelementptr inbounds nuw i8, ptr %4, i64 256
  tail call void @llvm.memset.p0.i64(ptr noundef nonnull align 8 dereferenceable(32) %66, i8 0, i64 32, i1 false)
  br label %67

67:                                               ; preds = %63, %5, %2
  %68 = getelementptr inbounds nuw i8, ptr %0, i64 36
  %69 = load i8, ptr %68, align 4
  %70 = and i8 %69, -2
  store i8 %70, ptr %68, align 4
  ret void
}